target datalayout = "e-m:e-p270:32:32-p271:32:32-p272:64:64-i64:64-i128:128-f80:128-n8:16:32:64-S128"
target triple = "x86_64-pc-linux-gnu"

%struct._e_guid_t = type { i32, i16, i16, [8 x i8] }
%struct.nstime_t = type { i64, i32 }
%struct._packet_info = type { ptr, ptr, i32, i32, %struct.nstime_t, %struct.nstime_t, %struct.nstime_t, i8, ptr, ptr, ptr, ptr, %struct._address, %struct._address, %struct._address, %struct._address, %struct._address, %struct._address, i32, ptr, i8, [3 x i8], %struct.anon, i32, i32, i32, i32, ptr, i8, ptr, ptr, i16, i16, i32, i32, i16, i32, i32, ptr, ptr, ptr, i8, i8, i16, i16, i16, i32, i16, i16, ptr, ptr, ptr, ptr, ptr, i32, i32 }
%struct._address = type { i32, i32, ptr, ptr }
%struct.anon = type { i8, [3 x i8] }
%struct._smb2_info_t = type { i16, i32, i32, i32, i64, i64, i32, ptr, ptr, ptr, ptr, ptr, ptr, ptr }
%struct._smb2_saved_info_t = type { i8, i8, i64, i32, i32, %struct.nstime_t, ptr, ptr, ptr, %struct._e_ctx_hnd, ptr, i64, i32, ptr, i32, i32, i16, ptr, %struct._e_guid_t, i32, i32, ptr }
%struct._e_ctx_hnd = type { i32, %struct._e_guid_t }
%struct._proto_node = type { ptr, ptr, ptr, ptr, ptr, ptr, ptr }
%struct.field_info = type { ptr, i32, i32, i32, i32, i32, i32, ptr, ptr, ptr, i32, i32 }
%struct._smb2_fid_info_t = type { i64, i64, i64, i32, i32, i32, i32, ptr, i32, i32 }

@hf_smb2_filename = internal global i32 0, align 4
@hf_smb2_file_id_hash = internal global i32 0, align 4
@hf_smb2_close_flags = internal global i32 0, align 4
@hf_smb2_buffer_code = internal global i32 0, align 4
@hf_smb2_buffer_code_len = internal global i32 0, align 4
@hf_smb2_buffer_code_flags_dyn = internal global i32 0, align 4
@hf_smb2_close_pq_attrib = internal global i32 0, align 4
@ett_smb2_close_flags = internal global i32 0, align 4
@ett_smb2_buffercode = internal global i32 0, align 4
@ett_smb2_fid_str = internal global i32 0, align 4
@.str.2167 = private unnamed_addr constant [21 x i8] c"File Id Hash: 0x%04x\00", align 1
@.str.2169 = private unnamed_addr constant [11 x i8] c", File: %s\00", align 1
@.str.2256 = private unnamed_addr constant [15 x i8] c", (delete dir)\00", align 1
@.str.2257 = private unnamed_addr constant [16 x i8] c", (delete file)\00", align 1

; Function Attrs: inlinehint nounwind null_pointer_is_valid sspstrong uwtable
define internal void @proto_item_set_generated(ptr noundef %0) #4 {
  %2 = alloca ptr, align 8
  store ptr %0, ptr %2, align 8
  %3 = load ptr, ptr %2, align 8
  %4 = icmp ne ptr %3, null
  br i1 %4, label %5, label %24

5:                                                ; preds = %1
  br label %6

6:                                                ; preds = %5
  %7 = load ptr, ptr %2, align 8
  %8 = getelementptr inbounds nuw %struct._proto_node, ptr %7, i32 0, i32 5
  %9 = load ptr, ptr %8, align 8
  %10 = icmp ne ptr %9, null
  br i1 %10, label %11, label %22

11:                                               ; preds = %6
  %12 = load ptr, ptr %2, align 8
  %13 = getelementptr inbounds nuw %struct._proto_node, ptr %12, i32 0, i32 5
  %14 = load ptr, ptr %13, align 8
  %15 = getelementptr inbounds nuw %struct.field_info, ptr %14, i32 0, i32 6
  %16 = load i32, ptr %15, align 4
  %17 = or i32 %16, 2
  %18 = load ptr, ptr %2, align 8
  %19 = getelementptr inbounds nuw %struct._proto_node, ptr %18, i32 0, i32 5
  %20 = load ptr, ptr %19, align 8
  %21 = getelementptr inbounds nuw %struct.field_info, ptr %20, i32 0, i32 6
  store i32 %17, ptr %21, align 4
  br label %22

22:                                               ; preds = %11, %6
  br label %23

23:                                               ; preds = %22
  br label %24

24:                                               ; preds = %23, %1
  ret void
}

; Function Attrs: null_pointer_is_valid sspstrong uwtable
define internal i32 @dissect_smb2_buffercode(ptr noundef %0, ptr noundef %1, i32 noundef %2, ptr noundef %3) #0 {
  %5 = alloca ptr, align 8
  %6 = alloca ptr, align 8
  %7 = alloca i32, align 4
  %8 = alloca ptr, align 8
  %9 = alloca ptr, align 8
  %10 = alloca ptr, align 8
  %11 = alloca i16, align 2
  store ptr %0, ptr %5, align 8
  store ptr %1, ptr %6, align 8
  store i32 %2, ptr %7, align 4
  store ptr %3, ptr %8, align 8
  call void @llvm.lifetime.start.p0(i64 8, ptr %9) #13
  call void @llvm.lifetime.start.p0(i64 8, ptr %10) #13
  store ptr null, ptr %10, align 8
  call void @llvm.lifetime.start.p0(i64 2, ptr %11) #13
  %12 = load ptr, ptr %6, align 8
  %13 = load i32, ptr %7, align 4
  %14 = call zeroext i16 @tvb_get_letohs(ptr noundef %12, i32 noundef %13)
  store i16 %14, ptr %11, align 2
  %15 = load ptr, ptr %5, align 8
  %16 = load i32, ptr @hf_smb2_buffer_code, align 4
  %17 = load ptr, ptr %6, align 8
  %18 = load i32, ptr %7, align 4
  %19 = load i16, ptr %11, align 2
  %20 = zext i16 %19 to i32
  %21 = call ptr @proto_tree_add_uint(ptr noundef %15, i32 noundef %16, ptr noundef %17, i32 noundef %18, i32 noundef 2, i32 noundef %20)
  store ptr %21, ptr %10, align 8
  %22 = load ptr, ptr %10, align 8
  %23 = load i32, ptr @ett_smb2_buffercode, align 4
  %24 = call ptr @proto_item_add_subtree(ptr noundef %22, i32 noundef %23)
  store ptr %24, ptr %9, align 8
  %25 = load ptr, ptr %9, align 8
  %26 = load i32, ptr @hf_smb2_buffer_code_len, align 4
  %27 = load ptr, ptr %6, align 8
  %28 = load i32, ptr %7, align 4
  %29 = call ptr @proto_tree_add_item(ptr noundef %25, i32 noundef %26, ptr noundef %27, i32 noundef %28, i32 noundef 2, i32 noundef -2147483648)
  %30 = load ptr, ptr %9, align 8
  %31 = load i32, ptr @hf_smb2_buffer_code_flags_dyn, align 4
  %32 = load ptr, ptr %6, align 8
  %33 = load i32, ptr %7, align 4
  %34 = call ptr @proto_tree_add_item(ptr noundef %30, i32 noundef %31, ptr noundef %32, i32 noundef %33, i32 noundef 2, i32 noundef -2147483648)
  %35 = load i32, ptr %7, align 4
  %36 = add i32 %35, 2
  store i32 %36, ptr %7, align 4
  %37 = load ptr, ptr %8, align 8
  %38 = icmp ne ptr %37, null
  br i1 %38, label %39, label %42

39:                                               ; preds = %4
  %40 = load i16, ptr %11, align 2
  %41 = load ptr, ptr %8, align 8
  store i16 %40, ptr %41, align 2
  br label %42

42:                                               ; preds = %39, %4
  %43 = load i32, ptr %7, align 4
  call void @llvm.lifetime.end.p0(i64 2, ptr %11) #13
  call void @llvm.lifetime.end.p0(i64 8, ptr %10) #13
  call void @llvm.lifetime.end.p0(i64 8, ptr %9) #13
  ret i32 %43
}

; Function Attrs: null_pointer_is_valid sspstrong uwtable
define internal i32 @dissect_smb2_close_request(ptr noundef %0, ptr noundef %1, ptr noundef %2, i32 noundef %3, ptr noundef %4) #0 {
  %6 = alloca ptr, align 8
  %7 = alloca ptr, align 8
  %8 = alloca ptr, align 8
  %9 = alloca i32, align 4
  %10 = alloca ptr, align 8
  %11 = alloca ptr, align 8
  %12 = alloca ptr, align 8
  %13 = alloca ptr, align 8
  %14 = alloca ptr, align 8
  %15 = alloca ptr, align 8
  %16 = alloca %struct._e_guid_t, align 4
  store ptr %0, ptr %6, align 8
  store ptr %1, ptr %7, align 8
  store ptr %2, ptr %8, align 8
  store i32 %3, ptr %9, align 4
  store ptr %4, ptr %10, align 8
  call void @llvm.lifetime.start.p0(i64 8, ptr %11) #13
  store ptr null, ptr %11, align 8
  call void @llvm.lifetime.start.p0(i64 8, ptr %12) #13
  store ptr null, ptr %12, align 8
  call void @llvm.lifetime.start.p0(i64 8, ptr %13) #13
  store ptr null, ptr %13, align 8
  call void @llvm.lifetime.start.p0(i64 8, ptr %14) #13
  store ptr null, ptr %14, align 8
  call void @llvm.lifetime.start.p0(i64 8, ptr %15) #13
  store ptr null, ptr %15, align 8
  call void @llvm.lifetime.start.p0(i64 16, ptr %16) #13
  %17 = load ptr, ptr %8, align 8
  %18 = load ptr, ptr %6, align 8
  %19 = load i32, ptr %9, align 4
  %20 = call i32 @dissect_smb2_buffercode(ptr noundef %17, ptr noundef %18, i32 noundef %19, ptr noundef null)
  store i32 %20, ptr %9, align 4
  %21 = load ptr, ptr %8, align 8
  %22 = icmp ne ptr %21, null
  br i1 %22, label %23, label %32

23:                                               ; preds = %5
  %24 = load ptr, ptr %8, align 8
  %25 = load i32, ptr @hf_smb2_close_flags, align 4
  %26 = load ptr, ptr %6, align 8
  %27 = load i32, ptr %9, align 4
  %28 = call ptr @proto_tree_add_item(ptr noundef %24, i32 noundef %25, ptr noundef %26, i32 noundef %27, i32 noundef 2, i32 noundef -2147483648)
  store ptr %28, ptr %12, align 8
  %29 = load ptr, ptr %12, align 8
  %30 = load i32, ptr @ett_smb2_close_flags, align 4
  %31 = call ptr @proto_item_add_subtree(ptr noundef %29, i32 noundef %30)
  store ptr %31, ptr %11, align 8
  br label %32

32:                                               ; preds = %23, %5
  %33 = load ptr, ptr %11, align 8
  %34 = load i32, ptr @hf_smb2_close_pq_attrib, align 4
  %35 = load ptr, ptr %6, align 8
  %36 = load i32, ptr %9, align 4
  %37 = call ptr @proto_tree_add_item(ptr noundef %33, i32 noundef %34, ptr noundef %35, i32 noundef %36, i32 noundef 2, i32 noundef -2147483648)
  %38 = load i32, ptr %9, align 4
  %39 = add i32 %38, 2
  store i32 %39, ptr %9, align 4
  %40 = load i32, ptr %9, align 4
  %41 = add i32 %40, 4
  store i32 %41, ptr %9, align 4
  %42 = load ptr, ptr %6, align 8
  %43 = load i32, ptr %9, align 4
  call void @tvb_get_letohguid(ptr noundef %42, i32 noundef %43, ptr noundef %16)
  %44 = load ptr, ptr %10, align 8
  %45 = getelementptr inbounds nuw %struct._smb2_info_t, ptr %44, i32 0, i32 9
  %46 = load ptr, ptr %45, align 8
  %47 = getelementptr inbounds nuw %struct._smb2_saved_info_t, ptr %46, i32 0, i32 18
  call void @llvm.memcpy.p0.p0.i64(ptr align 8 %47, ptr align 4 %16, i64 16, i1 false)
  %48 = load ptr, ptr %6, align 8
  %49 = load ptr, ptr %7, align 8
  %50 = load ptr, ptr %8, align 8
  %51 = load i32, ptr %9, align 4
  %52 = load ptr, ptr %10, align 8
  %53 = call i32 @dissect_smb2_fid(ptr noundef %48, ptr noundef %49, ptr noundef %50, i32 noundef %51, ptr noundef %52, i32 noundef 1)
  store i32 %53, ptr %9, align 4
  %54 = load ptr, ptr %10, align 8
  %55 = getelementptr inbounds nuw %struct._smb2_info_t, ptr %54, i32 0, i32 9
  %56 = load ptr, ptr %55, align 8
  %57 = getelementptr inbounds nuw %struct._smb2_saved_info_t, ptr %56, i32 0, i32 17
  %58 = load ptr, ptr %57, align 8
  %59 = icmp ne ptr %58, null
  br i1 %59, label %60, label %69

60:                                               ; preds = %32
  %61 = load ptr, ptr %10, align 8
  %62 = getelementptr inbounds nuw %struct._smb2_info_t, ptr %61, i32 0, i32 9
  %63 = load ptr, ptr %62, align 8
  %64 = getelementptr inbounds nuw %struct._smb2_saved_info_t, ptr %63, i32 0, i32 17
  %65 = load ptr, ptr %64, align 8
  %66 = load i32, ptr @ett_smb2_fid_str, align 4
  %67 = call ptr @proto_item_add_subtree(ptr noundef %65, i32 noundef %66)
  store ptr %67, ptr %14, align 8
  %68 = load ptr, ptr %14, align 8
  store ptr %68, ptr %15, align 8
  br label %71

69:                                               ; preds = %32
  %70 = load ptr, ptr %8, align 8
  store ptr %70, ptr %15, align 8
  br label %71

71:                                               ; preds = %69, %60
  %72 = load ptr, ptr %10, align 8
  %73 = getelementptr inbounds nuw %struct._smb2_info_t, ptr %72, i32 0, i32 12
  %74 = load ptr, ptr %73, align 8
  %75 = icmp ne ptr %74, null
  br i1 %75, label %76, label %99

76:                                               ; preds = %71
  %77 = load ptr, ptr %10, align 8
  %78 = getelementptr inbounds nuw %struct._smb2_info_t, ptr %77, i32 0, i32 12
  %79 = load ptr, ptr %78, align 8
  %80 = getelementptr inbounds nuw %struct._smb2_fid_info_t, ptr %79, i32 0, i32 9
  %81 = load i32, ptr %80, align 4
  %82 = icmp ne i32 %81, 0
  br i1 %82, label %83, label %99

83:                                               ; preds = %76
  %84 = load ptr, ptr %10, align 8
  %85 = getelementptr inbounds nuw %struct._smb2_info_t, ptr %84, i32 0, i32 12
  %86 = load ptr, ptr %85, align 8
  %87 = getelementptr inbounds nuw %struct._smb2_fid_info_t, ptr %86, i32 0, i32 8
  %88 = load i32, ptr %87, align 8
  %89 = icmp ne i32 %88, 0
  br i1 %89, label %90, label %94

90:                                               ; preds = %83
  %91 = load ptr, ptr %7, align 8
  %92 = getelementptr inbounds nuw %struct._packet_info, ptr %91, i32 0, i32 1
  %93 = load ptr, ptr %92, align 8
  call void @col_append_str(ptr noundef %93, i32 noundef 25, ptr noundef @.str.2256)
  br label %98

94:                                               ; preds = %83
  %95 = load ptr, ptr %7, align 8
  %96 = getelementptr inbounds nuw %struct._packet_info, ptr %95, i32 0, i32 1
  %97 = load ptr, ptr %96, align 8
  call void @col_append_str(ptr noundef %97, i32 noundef 25, ptr noundef @.str.2257)
  br label %98

98:                                               ; preds = %94, %90
  br label %99

99:                                               ; preds = %98, %76, %71
  %100 = load ptr, ptr %10, align 8
  %101 = getelementptr inbounds nuw %struct._smb2_info_t, ptr %100, i32 0, i32 12
  %102 = load ptr, ptr %101, align 8
  %103 = icmp ne ptr %102, null
  br i1 %103, label %104, label %130

104:                                              ; preds = %99
  %105 = load ptr, ptr %10, align 8
  %106 = getelementptr inbounds nuw %struct._smb2_info_t, ptr %105, i32 0, i32 12
  %107 = load ptr, ptr %106, align 8
  %108 = getelementptr inbounds nuw %struct._smb2_fid_info_t, ptr %107, i32 0, i32 7
  %109 = load ptr, ptr %108, align 8
  %110 = icmp ne ptr %109, null
  br i1 %110, label %111, label %130

111:                                              ; preds = %104
  %112 = load ptr, ptr %15, align 8
  %113 = load i32, ptr @hf_smb2_filename, align 4
  %114 = load ptr, ptr %6, align 8
  %115 = load ptr, ptr %10, align 8
  %116 = getelementptr inbounds nuw %struct._smb2_info_t, ptr %115, i32 0, i32 12
  %117 = load ptr, ptr %116, align 8
  %118 = getelementptr inbounds nuw %struct._smb2_fid_info_t, ptr %117, i32 0, i32 7
  %119 = load ptr, ptr %118, align 8
  %120 = call ptr @proto_tree_add_string(ptr noundef %112, i32 noundef %113, ptr noundef %114, i32 noundef 0, i32 noundef 0, ptr noundef %119)
  store ptr %120, ptr %13, align 8
  %121 = load ptr, ptr %13, align 8
  call void @proto_item_set_generated(ptr noundef %121)
  %122 = load ptr, ptr %7, align 8
  %123 = getelementptr inbounds nuw %struct._packet_info, ptr %122, i32 0, i32 1
  %124 = load ptr, ptr %123, align 8
  %125 = load ptr, ptr %10, align 8
  %126 = getelementptr inbounds nuw %struct._smb2_info_t, ptr %125, i32 0, i32 12
  %127 = load ptr, ptr %126, align 8
  %128 = getelementptr inbounds nuw %struct._smb2_fid_info_t, ptr %127, i32 0, i32 7
  %129 = load ptr, ptr %128, align 8
  call void (ptr, i32, ptr, ...) @col_append_fstr(ptr noundef %124, i32 noundef 25, ptr noundef @.str.2169, ptr noundef %129)
  br label %130

130:                                              ; preds = %111, %104, %99
  %131 = load ptr, ptr %10, align 8
  %132 = getelementptr inbounds nuw %struct._smb2_info_t, ptr %131, i32 0, i32 9
  %133 = load ptr, ptr %132, align 8
  %134 = getelementptr inbounds nuw %struct._smb2_saved_info_t, ptr %133, i32 0, i32 15
  %135 = load i32, ptr %134, align 4
  %136 = icmp ne i32 %135, 0
  br i1 %136, label %137, label %153

137:                                              ; preds = %130
  %138 = load ptr, ptr %15, align 8
  %139 = load i32, ptr @hf_smb2_file_id_hash, align 4
  %140 = load ptr, ptr %6, align 8
  %141 = load ptr, ptr %10, align 8
  %142 = getelementptr inbounds nuw %struct._smb2_info_t, ptr %141, i32 0, i32 9
  %143 = load ptr, ptr %142, align 8
  %144 = getelementptr inbounds nuw %struct._smb2_saved_info_t, ptr %143, i32 0, i32 15
  %145 = load i32, ptr %144, align 4
  %146 = load ptr, ptr %10, align 8
  %147 = getelementptr inbounds nuw %struct._smb2_info_t, ptr %146, i32 0, i32 9
  %148 = load ptr, ptr %147, align 8
  %149 = getelementptr inbounds nuw %struct._smb2_saved_info_t, ptr %148, i32 0, i32 15
  %150 = load i32, ptr %149, align 4
  %151 = call ptr (ptr, i32, ptr, i32, i32, i32, ptr, ...) @proto_tree_add_uint_format(ptr noundef %138, i32 noundef %139, ptr noundef %140, i32 noundef 0, i32 noundef 0, i32 noundef %145, ptr noundef @.str.2167, i32 noundef %150)
  store ptr %151, ptr %13, align 8
  %152 = load ptr, ptr %13, align 8
  call void @proto_item_set_generated(ptr noundef %152)
  br label %153

153:                                              ; preds = %137, %130
  %154 = load i32, ptr %9, align 4
  call void @llvm.lifetime.end.p0(i64 16, ptr %16) #13
  call void @llvm.lifetime.end.p0(i64 8, ptr %15) #13
  call void @llvm.lifetime.end.p0(i64 8, ptr %14) #13
  call void @llvm.lifetime.end.p0(i64 8, ptr %13) #13
  call void @llvm.lifetime.end.p0(i64 8, ptr %12) #13
  call void @llvm.lifetime.end.p0(i64 8, ptr %11) #13
  ret i32 %154
}