; Function Attrs: null_pointer_is_valid sspstrong uwtable
define internal i32 @dissect_smb2_close_request(ptr noundef %0, ptr noundef %1, ptr noundef %2, i32 noundef %3, ptr noundef captures(none) %4) #0 {
  %6 = alloca %struct._e_guid_t, align 4
  call void @llvm.lifetime.start.p0(i64 16, ptr nonnull %6) #13
  %7 = tail call zeroext i16 @tvb_get_letohs(ptr noundef %0, i32 noundef %3)
  %8 = load i32, ptr @hf_smb2_buffer_code, align 4
  %9 = zext i16 %7 to i32
  %10 = tail call ptr @proto_tree_add_uint(ptr noundef %2, i32 noundef %8, ptr noundef %0, i32 noundef %3, i32 noundef 2, i32 noundef %9)
  %11 = load i32, ptr @ett_smb2_buffercode, align 4
  %12 = tail call ptr @proto_item_add_subtree(ptr noundef %10, i32 noundef %11)
  %13 = load i32, ptr @hf_smb2_buffer_code_len, align 4
  %14 = tail call ptr @proto_tree_add_item(ptr noundef %12, i32 noundef %13, ptr noundef %0, i32 noundef %3, i32 noundef 2, i32 noundef -2147483648)
  %15 = load i32, ptr @hf_smb2_buffer_code_flags_dyn, align 4
  %16 = tail call ptr @proto_tree_add_item(ptr noundef %12, i32 noundef %15, ptr noundef %0, i32 noundef %3, i32 noundef 2, i32 noundef -2147483648)
  %17 = add i32 %3, 2
  %.not = icmp eq ptr %2, null
  br i1 %.not, label %23, label %18

18:                                               ; preds = %5
  %19 = load i32, ptr @hf_smb2_close_flags, align 4
  %20 = tail call ptr @proto_tree_add_item(ptr noundef nonnull %2, i32 noundef %19, ptr noundef %0, i32 noundef %17, i32 noundef 2, i32 noundef -2147483648)
  %21 = load i32, ptr @ett_smb2_close_flags, align 4
  %22 = tail call ptr @proto_item_add_subtree(ptr noundef %20, i32 noundef %21)
  br label %23

23:                                               ; preds = %18, %5
  %.044 = phi ptr [ %22, %18 ], [ null, %5 ]
  %24 = load i32, ptr @hf_smb2_close_pq_attrib, align 4
  %25 = tail call ptr @proto_tree_add_item(ptr noundef %.044, i32 noundef %24, ptr noundef %0, i32 noundef %17, i32 noundef 2, i32 noundef -2147483648)
  %26 = add i32 %3, 8
  call void @tvb_get_letohguid(ptr noundef %0, i32 noundef %26, ptr noundef nonnull %6)
  %27 = getelementptr inbounds nuw i8, ptr %4, i64 56
  %28 = load ptr, ptr %27, align 8
  %29 = getelementptr inbounds nuw i8, ptr %28, i64 144
  call void @llvm.memcpy.p0.p0.i64(ptr noundef nonnull align 8 dereferenceable(16) %29, ptr noundef nonnull align 4 dereferenceable(16) %6, i64 16, i1 false)
  %30 = call fastcc i32 @dissect_smb2_fid(ptr noundef %0, ptr noundef %1, ptr noundef %2, i32 noundef %26, ptr noundef %4, i32 noundef 1)
  %31 = load ptr, ptr %27, align 8
  %32 = getelementptr inbounds nuw i8, ptr %31, i64 136
  %33 = load ptr, ptr %32, align 8
  %.not51 = icmp eq ptr %33, null
  br i1 %.not51, label %37, label %34

34:                                               ; preds = %23
  %35 = load i32, ptr @ett_smb2_fid_str, align 4
  %36 = call ptr @proto_item_add_subtree(ptr noundef nonnull %33, i32 noundef %35)
  br label %37

37:                                               ; preds = %23, %34
  %.0 = phi ptr [ %36, %34 ], [ %2, %23 ]
  %38 = getelementptr inbounds nuw i8, ptr %4, i64 80
  %39 = load ptr, ptr %38, align 8
  %.not52 = icmp eq ptr %39, null
  br i1 %.not52, label %.thread, label %40

40:                                               ; preds = %37
  %41 = getelementptr inbounds nuw i8, ptr %39, i64 52
  %42 = load i32, ptr %41, align 4
  %.not53 = icmp eq i32 %42, 0
  br i1 %.not53, label %47, label %.sink.split

.sink.split:                                      ; preds = %40
  %43 = getelementptr inbounds nuw i8, ptr %39, i64 48
  %44 = load i32, ptr %43, align 8
  %.not54 = icmp eq i32 %44, 0
  %45 = getelementptr inbounds nuw i8, ptr %1, i64 8
  %46 = load ptr, ptr %45, align 8
  %.str.2257..str.2256 = select i1 %.not54, ptr @.str.2257, ptr @.str.2256
  call void @col_append_str(ptr noundef %46, i32 noundef 25, ptr noundef nonnull %.str.2257..str.2256)
  br label %47

47:                                               ; preds = %.sink.split, %40
  %.pr = load ptr, ptr %38, align 8
  %.not55 = icmp eq ptr %.pr, null
  br i1 %.not55, label %.thread, label %48

48:                                               ; preds = %47
  %49 = getelementptr inbounds nuw i8, ptr %.pr, i64 40
  %50 = load ptr, ptr %49, align 8
  %.not56 = icmp eq ptr %50, null
  br i1 %.not56, label %.thread, label %51

51:                                               ; preds = %48
  %52 = load i32, ptr @hf_smb2_filename, align 4
  %53 = call ptr @proto_tree_add_string(ptr noundef %.0, i32 noundef %52, ptr noundef %0, i32 noundef 0, i32 noundef 0, ptr noundef nonnull %50)
  %.not.i = icmp eq ptr %53, null
  br i1 %.not.i, label %proto_item_set_generated.exit, label %54

54:                                               ; preds = %51
  %55 = getelementptr inbounds nuw i8, ptr %53, i64 40
  %56 = load ptr, ptr %55, align 8
  %.not5.i = icmp eq ptr %56, null
  br i1 %.not5.i, label %proto_item_set_generated.exit, label %57

57:                                               ; preds = %54
  %58 = getelementptr inbounds nuw i8, ptr %56, i64 28
  %59 = load i32, ptr %58, align 4
  %60 = or i32 %59, 2
  store i32 %60, ptr %58, align 4
  br label %proto_item_set_generated.exit

proto_item_set_generated.exit:                    ; preds = %51, %54, %57
  %61 = getelementptr inbounds nuw i8, ptr %1, i64 8
  %62 = load ptr, ptr %61, align 8
  %63 = load ptr, ptr %38, align 8
  %64 = getelementptr inbounds nuw i8, ptr %63, i64 40
  %65 = load ptr, ptr %64, align 8
  call void (ptr, i32, ptr, ...) @col_append_fstr(ptr noundef %62, i32 noundef 25, ptr noundef nonnull @.str.2169, ptr noundef %65)
  br label %.thread

.thread:                                          ; preds = %37, %proto_item_set_generated.exit, %48, %47
  %66 = load ptr, ptr %27, align 8
  %67 = getelementptr inbounds nuw i8, ptr %66, i64 124
  %68 = load i32, ptr %67, align 4
  %.not57 = icmp eq i32 %68, 0
  br i1 %.not57, label %proto_item_set_generated.exit60, label %69

69:                                               ; preds = %.thread
  %70 = load i32, ptr @hf_smb2_file_id_hash, align 4
  %71 = call ptr (ptr, i32, ptr, i32, i32, i32, ptr, ...) @proto_tree_add_uint_format(ptr noundef %.0, i32 noundef %70, ptr noundef %0, i32 noundef 0, i32 noundef 0, i32 noundef %68, ptr noundef nonnull @.str.2167, i32 noundef %68)
  %.not.i58 = icmp eq ptr %71, null
  br i1 %.not.i58, label %proto_item_set_generated.exit60, label %72

72:                                               ; preds = %69
  %73 = getelementptr inbounds nuw i8, ptr %71, i64 40
  %74 = load ptr, ptr %73, align 8
  %.not5.i59 = icmp eq ptr %74, null
  br i1 %.not5.i59, label %proto_item_set_generated.exit60, label %75

75:                                               ; preds = %72
  %76 = getelementptr inbounds nuw i8, ptr %74, i64 28
  %77 = load i32, ptr %76, align 4
  %78 = or i32 %77, 2
  store i32 %78, ptr %76, align 4
  br label %proto_item_set_generated.exit60

proto_item_set_generated.exit60:                  ; preds = %75, %72, %69, %.thread
  call void @llvm.lifetime.end.p0(i64 16, ptr nonnull %6) #13
  ret i32 %30
}